(lp0
(iMistura
Mistura
p1
(dp2
S'listaMistura'
p3
(lp4
sS'simbolo'
p5
S'HHO'
p6
sS'pontos'
p7
I5
sS'nome'
p8
S'\xb5gua'
p9
sba(iMistura
Mistura
p10
(dp11
g3
(lp12
sg5
S'KCl'
p13
sg7
I15
sg8
S'Cloreto de Pot\xa0ssio'
p14
sba(iMistura
Mistura
p15
(dp16
g3
(lp17
sg5
S'HHSOOOO'
p18
sg7
I15
sg8
S'\xb5cido Sulf\xa3rico'
p19
sba(iMistura
Mistura
p20
(dp21
g3
(lp22
sg5
S'NaCl'
p23
sg7
I5
sg8
S'Cloreto de S\xa2dio'
p24
sba.